target datalayout = "e-m:e-p270:32:32-p271:32:32-p272:64:64-i64:64-i128:128-f80:128-n8:16:32:64-S128"
target triple = "x86_64-pc-linux-gnu"

%union.pthread_mutex_t = type { %struct.__pthread_mutex_s }
%struct.__pthread_mutex_s = type { i32, i32, i32, i32, i32, i16, i16, %struct.__pthread_internal_list }
%struct.__pthread_internal_list = type { ptr, ptr }
%struct.WOLFSSL_SESSION = type { i32, i32, %struct.wolfSSL_RefWithMutex, [32 x i8], i8, ptr, i8, i32, i32, [32 x i8], i8, [48 x i8], i16, i8, i8, i16, [20 x i8], i16, i8 }
%struct.wolfSSL_RefWithMutex = type { %union.pthread_mutex_t, i32 }

; Function Attrs: nounwind uwtable
define ptr @wolfSSL_NewSession(ptr noundef %0) #0 {
  %2 = alloca ptr, align 8
  %3 = alloca ptr, align 8
  %4 = alloca ptr, align 8
  %5 = alloca i32, align 4
  %6 = alloca ptr, align 8
  %7 = alloca i32, align 4
  store ptr %0, ptr %3, align 8, !tbaa !3
  call void @llvm.lifetime.start.p0(i64 8, ptr %4) #9
  store ptr null, ptr %4, align 8, !tbaa !53
  br label %8

8:                                                ; preds = %1
  br label %9

9:                                                ; preds = %8
  br label %10

10:                                               ; preds = %9
  %11 = call ptr @wolfSSL_Malloc(i64 noundef 232)
  store ptr %11, ptr %4, align 8, !tbaa !53
  %12 = load ptr, ptr %4, align 8, !tbaa !53
  %13 = icmp ne ptr %12, null
  br i1 %13, label %14, label %44

14:                                               ; preds = %10
  call void @llvm.lifetime.start.p0(i64 4, ptr %5) #9
  %15 = load ptr, ptr %4, align 8, !tbaa !53
  call void @llvm.memset.p0.i64(ptr align 8 %15, i8 0, i64 232, i1 false)
  %16 = load ptr, ptr %4, align 8, !tbaa !53
  %17 = getelementptr inbounds nuw %struct.WOLFSSL_SESSION, ptr %16, i32 0, i32 2
  call void @wolfSSL_RefWithMutexInit(ptr noundef %17, ptr noundef %5)
  %18 = load i32, ptr %5, align 4, !tbaa !7
  %19 = icmp ne i32 %18, 0
  br i1 %19, label %20, label %33

20:                                               ; preds = %14
  br label %21

21:                                               ; preds = %20
  br label %22

22:                                               ; preds = %21
  br label %23

23:                                               ; preds = %22
  br label %24

24:                                               ; preds = %23
  call void @llvm.lifetime.start.p0(i64 8, ptr %6) #9
  %25 = load ptr, ptr %4, align 8, !tbaa !53
  store ptr %25, ptr %6, align 8, !tbaa !3
  %26 = load ptr, ptr %6, align 8, !tbaa !3
  %27 = icmp ne ptr %26, null
  br i1 %27, label %28, label %30

28:                                               ; preds = %24
  %29 = load ptr, ptr %6, align 8, !tbaa !3
  call void @wolfSSL_Free(ptr noundef %29)
  br label %30

30:                                               ; preds = %28, %24
  call void @llvm.lifetime.end.p0(i64 8, ptr %6) #9
  br label %31

31:                                               ; preds = %30
  br label %32

32:                                               ; preds = %31
  store ptr null, ptr %2, align 8
  store i32 1, ptr %7, align 4
  br label %41

33:                                               ; preds = %14
  %34 = load ptr, ptr %4, align 8, !tbaa !53
  %35 = getelementptr inbounds nuw %struct.WOLFSSL_SESSION, ptr %34, i32 0, i32 1
  store i32 -1, ptr %35, align 4, !tbaa !104
  %36 = load ptr, ptr %4, align 8, !tbaa !53
  %37 = getelementptr inbounds nuw %struct.WOLFSSL_SESSION, ptr %36, i32 0, i32 0
  store i32 3, ptr %37, align 8, !tbaa !103
  %38 = load ptr, ptr %3, align 8, !tbaa !3
  %39 = load ptr, ptr %4, align 8, !tbaa !53
  %40 = getelementptr inbounds nuw %struct.WOLFSSL_SESSION, ptr %39, i32 0, i32 5
  store ptr %38, ptr %40, align 8, !tbaa !105
  store i32 0, ptr %7, align 4
  br label %41

41:                                               ; preds = %33, %32
  call void @llvm.lifetime.end.p0(i64 4, ptr %5) #9
  %42 = load i32, ptr %7, align 4
  switch i32 %42, label %46 [
    i32 0, label %43
  ]

43:                                               ; preds = %41
  br label %44

44:                                               ; preds = %43, %10
  %45 = load ptr, ptr %4, align 8, !tbaa !53
  store ptr %45, ptr %2, align 8
  store i32 1, ptr %7, align 4
  br label %46

46:                                               ; preds = %44, %41
  call void @llvm.lifetime.end.p0(i64 8, ptr %4) #9
  %47 = load ptr, ptr %2, align 8
  ret ptr %47
}