; Function Attrs: nounwind uwtable
define ptr @wolfSSL_NewSession(ptr noundef %0) local_unnamed_addr #0 {
  %2 = alloca i32, align 4
  %3 = tail call ptr @wolfSSL_Malloc(i64 noundef 232) #22
  %.not = icmp eq ptr %3, null
  br i1 %.not, label %10, label %4

4:                                                ; preds = %1
  call void @llvm.lifetime.start.p0(i64 4, ptr nonnull %2) #22
  tail call void @llvm.memset.p0.i64(ptr noundef nonnull align 8 dereferenceable(232) %3, i8 0, i64 232, i1 false)
  %5 = getelementptr inbounds nuw i8, ptr %3, i64 8
  call void @wolfSSL_RefWithMutexInit(ptr noundef nonnull %5, ptr noundef nonnull %2) #22
  %6 = load i32, ptr %2, align 4, !tbaa !3
  %.not14 = icmp eq i32 %6, 0
  br i1 %.not14, label %.thread, label %9

.thread:                                          ; preds = %4
  %7 = getelementptr inbounds nuw i8, ptr %3, i64 4
  store i32 -1, ptr %7, align 4, !tbaa !85
  store i32 3, ptr %3, align 8, !tbaa !84
  %8 = getelementptr inbounds nuw i8, ptr %3, i64 96
  store ptr %0, ptr %8, align 8, !tbaa !86
  br label %.sink.split

9:                                                ; preds = %4
  call void @wolfSSL_Free(ptr noundef nonnull %3) #22
  br label %.sink.split

.sink.split:                                      ; preds = %9, %.thread
  %.1.ph = phi ptr [ %3, %.thread ], [ null, %9 ]
  call void @llvm.lifetime.end.p0(i64 4, ptr nonnull %2) #22
  br label %10

10:                                               ; preds = %.sink.split, %1
  %.1 = phi ptr [ null, %1 ], [ %.1.ph, %.sink.split ]
  ret ptr %.1
}